target datalayout = "e-m:e-p270:32:32-p271:32:32-p272:64:64-i64:64-i128:128-f80:128-n8:16:32:64-S128"
target triple = "x86_64-pc-linux-gnu"

%"class.google::protobuf::DynamicMessage" = type <{ %"class.google::protobuf::Message", ptr, %"struct.std::atomic", [4 x i8] }>
%"class.google::protobuf::Message" = type { %"class.google::protobuf::MessageLite" }
%"class.google::protobuf::MessageLite" = type { ptr, %"class.google::protobuf::internal::InternalMetadata" }
%"class.google::protobuf::internal::InternalMetadata" = type { i64 }
%"struct.std::atomic" = type { %"struct.std::__atomic_base" }
%"struct.std::__atomic_base" = type { i32 }
%"struct.google::protobuf::DynamicMessageFactory::TypeInfo" = type <{ i32, i32, i32, i32, ptr, ptr, ptr, %"class.std::unique_ptr", %"class.std::unique_ptr", %"class.std::unique_ptr.2", ptr, i32, [4 x i8] }>
%"class.std::unique_ptr" = type { %"struct.std::__uniq_ptr_data" }
%"struct.std::__uniq_ptr_data" = type { %"class.std::__uniq_ptr_impl" }
%"class.std::__uniq_ptr_impl" = type { %"class.std::tuple" }
%"class.std::tuple" = type { %"struct.std::_Tuple_impl" }
%"struct.std::_Tuple_impl" = type { %"struct.std::_Head_base.1" }
%"struct.std::_Head_base.1" = type { ptr }
%"class.std::unique_ptr.2" = type { %"struct.std::__uniq_ptr_data.3" }
%"struct.std::__uniq_ptr_data.3" = type { %"class.std::__uniq_ptr_impl.4" }
%"class.std::__uniq_ptr_impl.4" = type { %"class.std::tuple.5" }
%"class.std::tuple.5" = type { %"struct.std::_Tuple_impl.6" }
%"struct.std::_Tuple_impl.6" = type { %"struct.std::_Head_base.9" }
%"struct.std::_Head_base.9" = type { ptr }
%"class.google::protobuf::internal::LogMessage" = type { i32, ptr, i32, %"class.std::__cxx11::basic_string" }
%"class.std::__cxx11::basic_string" = type { %"struct.std::__cxx11::basic_string<char>::_Alloc_hider", i64, %union.anon.21 }
%"struct.std::__cxx11::basic_string<char>::_Alloc_hider" = type { ptr }
%union.anon.21 = type { i64, [8 x i8] }
%"class.google::protobuf::internal::LogFinisher" = type { i8 }

@.str.7 = private unnamed_addr constant [137 x i8] c"generated/home/dtcxzyw/WorkSpace/Projects/compilers/llvm-opt-benchmark/bench/opencv/opencv/3rdparty/protobuf/src/google/protobuf/arena.h\00", align 1
@.str.8 = private unnamed_addr constant [83 x i8] c"CHECK failed: (num_elements) <= (std::numeric_limits<size_t>::max() / sizeof(T)): \00", align 1
@.str.9 = private unnamed_addr constant [48 x i8] c"Requested size is too large to fit into size_t.\00", align 1
@_ZTIc = external constant ptr
@_ZN6google8protobuf14DynamicMessageC1EPKNS0_21DynamicMessageFactory8TypeInfoE = hidden unnamed_addr alias void (ptr, ptr), ptr @_ZN6google8protobuf14DynamicMessageC2EPKNS0_21DynamicMessageFactory8TypeInfoE
@_ZN6google8protobuf14DynamicMessageC1EPKNS0_21DynamicMessageFactory8TypeInfoEPNS0_5ArenaE = hidden unnamed_addr alias void (ptr, ptr, ptr), ptr @_ZN6google8protobuf14DynamicMessageC2EPKNS0_21DynamicMessageFactory8TypeInfoEPNS0_5ArenaE

; Function Attrs: alwaysinline mustprogress nounwind uwtable
define linkonce_odr hidden noundef ptr @_ZN6google8protobuf8internal7AlignToEPvm(ptr noundef %0, i64 noundef %1) #13 comdat {
  %3 = alloca ptr, align 8
  %4 = alloca i64, align 8
  store ptr %0, ptr %3, align 8, !tbaa !53
  store i64 %1, ptr %4, align 8, !tbaa !54
  %5 = load ptr, ptr %3, align 8, !tbaa !53
  %6 = ptrtoint ptr %5 to i64
  %7 = load i64, ptr %4, align 8, !tbaa !54
  %8 = add i64 %6, %7
  %9 = sub i64 %8, 1
  %10 = load i64, ptr %4, align 8, !tbaa !54
  %11 = xor i64 %10, -1
  %12 = add i64 %11, 1
  %13 = and i64 %9, %12
  %14 = inttoptr i64 %13 to ptr
  ret ptr %14
}

; Function Attrs: inlinehint mustprogress nounwind uwtable
define linkonce_odr hidden noundef i64 @_ZN6google8protobuf8internal10AlignUpTo8Em(i64 noundef %0) #7 comdat {
  %2 = alloca i64, align 8
  store i64 %0, ptr %2, align 8, !tbaa !54
  %3 = load i64, ptr %2, align 8, !tbaa !54
  %4 = add i64 %3, 7
  %5 = and i64 %4, -8
  ret i64 %5
}

; Function Attrs: mustprogress uwtable
define linkonce_odr hidden noundef ptr @_ZN6google8protobuf5Arena23AllocateAlignedWithHookEmmPKSt9type_info(ptr noundef nonnull align 8 dereferenceable(32) %0, i64 noundef %1, i64 noundef %2, ptr noundef %3) #4 comdat align 2 {
  %5 = alloca ptr, align 8
  %6 = alloca ptr, align 8
  %7 = alloca i64, align 8
  %8 = alloca i64, align 8
  %9 = alloca ptr, align 8
  store ptr %0, ptr %6, align 8, !tbaa !69
  store i64 %1, ptr %7, align 8, !tbaa !54
  store i64 %2, ptr %8, align 8, !tbaa !54
  store ptr %3, ptr %9, align 8, !tbaa !410
  %10 = load ptr, ptr %6, align 8
  %11 = load i64, ptr %8, align 8, !tbaa !54
  %12 = icmp ule i64 %11, 8
  br i1 %12, label %13, label %18

13:                                               ; preds = %4
  %14 = load i64, ptr %7, align 8, !tbaa !54
  %15 = call noundef i64 @_ZN6google8protobuf8internal10AlignUpTo8Em(i64 noundef %14)
  %16 = load ptr, ptr %9, align 8, !tbaa !410
  %17 = call noundef ptr @_ZN6google8protobuf5Arena23AllocateAlignedWithHookEmPKSt9type_info(ptr noundef nonnull align 8 dereferenceable(32) %10, i64 noundef %15, ptr noundef %16)
  store ptr %17, ptr %5, align 8
  br label %27

18:                                               ; preds = %4
  %19 = load i64, ptr %7, align 8, !tbaa !54
  %20 = load i64, ptr %8, align 8, !tbaa !54
  %21 = add i64 %19, %20
  %22 = sub i64 %21, 8
  %23 = load ptr, ptr %9, align 8, !tbaa !410
  %24 = call noundef ptr @_ZN6google8protobuf5Arena23AllocateAlignedWithHookEmPKSt9type_info(ptr noundef nonnull align 8 dereferenceable(32) %10, i64 noundef %22, ptr noundef %23)
  %25 = load i64, ptr %8, align 8, !tbaa !54
  %26 = call noundef ptr @_ZN6google8protobuf8internal7AlignToEPvm(ptr noundef %24, i64 noundef %25)
  store ptr %26, ptr %5, align 8
  br label %27

27:                                               ; preds = %18, %13
  %28 = load ptr, ptr %5, align 8
  ret ptr %28
}

; Function Attrs: alwaysinline mustprogress uwtable
define linkonce_odr hidden noundef ptr @_ZN6google8protobuf5Arena22CreateInternalRawArrayIcEEPT_m(ptr noundef nonnull align 8 dereferenceable(32) %0, i64 noundef %1) #10 comdat align 2 personality ptr @__gxx_personality_v0 {
  %3 = alloca ptr, align 8
  %4 = alloca i64, align 8
  %5 = alloca %"class.google::protobuf::internal::LogMessage", align 8
  %6 = alloca i1, align 1
  %7 = alloca i1, align 1
  %8 = alloca ptr, align 8
  %9 = alloca i32, align 4
  %10 = alloca %"class.google::protobuf::internal::LogFinisher", align 1
  %11 = alloca i64, align 8
  store ptr %0, ptr %3, align 8, !tbaa !69
  store i64 %1, ptr %4, align 8, !tbaa !54
  %12 = load ptr, ptr %3, align 8
  %13 = load i64, ptr %4, align 8, !tbaa !54
  %14 = call noundef i64 @_ZNSt14numeric_limitsImE3maxEv() #3
  %15 = udiv i64 %14, 1
  %16 = icmp ule i64 %13, %15
  store i1 false, ptr %6, align 1
  store i1 false, ptr %7, align 1
  call void @llvm.lifetime.start.p0(i64 1, ptr %10) #3
  br i1 %16, label %17, label %18

17:                                               ; preds = %2
  br label %24

18:                                               ; preds = %2
  call void @llvm.lifetime.start.p0(i64 56, ptr %5) #3
  store i1 true, ptr %6, align 1
  call void @_ZN6google8protobuf8internal10LogMessageC1ENS0_8LogLevelEPKci(ptr noundef nonnull align 8 dereferenceable(56) %5, i32 noundef 3, ptr noundef @.str.7, i32 noundef 619)
  store i1 true, ptr %7, align 1
  %19 = invoke noundef nonnull align 8 dereferenceable(56) ptr @_ZN6google8protobuf8internal10LogMessagelsEPKc(ptr noundef nonnull align 8 dereferenceable(56) %5, ptr noundef @.str.8)
          to label %20 unwind label %35

20:                                               ; preds = %18
  %21 = invoke noundef nonnull align 8 dereferenceable(56) ptr @_ZN6google8protobuf8internal10LogMessagelsEPKc(ptr noundef nonnull align 8 dereferenceable(56) %19, ptr noundef @.str.9)
          to label %22 unwind label %35

22:                                               ; preds = %20
  invoke void @_ZN6google8protobuf8internal11LogFinisheraSERNS1_10LogMessageE(ptr noundef nonnull align 1 dereferenceable(1) %10, ptr noundef nonnull align 8 dereferenceable(56) %21)
          to label %23 unwind label %39

23:                                               ; preds = %22
  br label %24

24:                                               ; preds = %23, %17
  call void @llvm.lifetime.end.p0(i64 1, ptr %10) #3
  %25 = load i1, ptr %7, align 1
  br i1 %25, label %26, label %27

26:                                               ; preds = %24
  call void @_ZN6google8protobuf8internal10LogMessageD1Ev(ptr noundef nonnull align 8 dereferenceable(56) %5) #3
  br label %27

27:                                               ; preds = %26, %24
  %28 = load i1, ptr %6, align 1
  br i1 %28, label %29, label %30

29:                                               ; preds = %27
  call void @llvm.lifetime.end.p0(i64 56, ptr %5) #3
  br label %30

30:                                               ; preds = %29, %27
  call void @llvm.lifetime.start.p0(i64 8, ptr %11) #3
  %31 = load i64, ptr %4, align 8, !tbaa !54
  %32 = mul i64 1, %31
  store i64 %32, ptr %11, align 8, !tbaa !54
  %33 = load i64, ptr %11, align 8, !tbaa !54
  %34 = call noundef ptr @_ZN6google8protobuf5Arena23AllocateAlignedWithHookEmmPKSt9type_info(ptr noundef nonnull align 8 dereferenceable(32) %12, i64 noundef %33, i64 noundef 1, ptr noundef @_ZTIc)
  call void @llvm.lifetime.end.p0(i64 8, ptr %11) #3
  ret ptr %34

35:                                               ; preds = %20, %18
  %36 = landingpad { ptr, i32 }
          cleanup
  %37 = extractvalue { ptr, i32 } %36, 0
  store ptr %37, ptr %8, align 8
  %38 = extractvalue { ptr, i32 } %36, 1
  store i32 %38, ptr %9, align 4
  br label %43

39:                                               ; preds = %22
  %40 = landingpad { ptr, i32 }
          cleanup
  %41 = extractvalue { ptr, i32 } %40, 0
  store ptr %41, ptr %8, align 8
  %42 = extractvalue { ptr, i32 } %40, 1
  store i32 %42, ptr %9, align 4
  call void @llvm.lifetime.end.p0(i64 1, ptr %10) #3
  br label %43

43:                                               ; preds = %39, %35
  %44 = load i1, ptr %7, align 1
  br i1 %44, label %45, label %46

45:                                               ; preds = %43
  call void @_ZN6google8protobuf8internal10LogMessageD1Ev(ptr noundef nonnull align 8 dereferenceable(56) %5) #3
  br label %46

46:                                               ; preds = %45, %43
  %47 = load i1, ptr %6, align 1
  br i1 %47, label %48, label %49

48:                                               ; preds = %46
  call void @llvm.lifetime.end.p0(i64 56, ptr %5) #3
  br label %49

49:                                               ; preds = %48, %46
  br label %50

50:                                               ; preds = %49
  %51 = load ptr, ptr %8, align 8
  %52 = load i32, ptr %9, align 4
  %53 = insertvalue { ptr, i32 } poison, ptr %51, 0
  %54 = insertvalue { ptr, i32 } %53, i32 %52, 1
  resume { ptr, i32 } %54
}

; Function Attrs: mustprogress nounwind uwtable
define linkonce_odr hidden noundef i64 @_ZNSt14numeric_limitsImE3maxEv() #5 comdat align 2 {
  ret i64 -1
}

; Function Attrs: alwaysinline mustprogress uwtable
define linkonce_odr hidden noundef ptr @_ZN6google8protobuf5Arena11CreateArrayIcEEPT_PS1_m(ptr noundef %0, i64 noundef %1) #10 comdat align 2 personality ptr @__gxx_personality_v0 {
  %3 = alloca ptr, align 8
  %4 = alloca ptr, align 8
  %5 = alloca i64, align 8
  %6 = alloca %"class.google::protobuf::internal::LogMessage", align 8
  %7 = alloca i1, align 1
  %8 = alloca i1, align 1
  %9 = alloca ptr, align 8
  %10 = alloca i32, align 4
  %11 = alloca %"class.google::protobuf::internal::LogFinisher", align 1
  store ptr %0, ptr %4, align 8, !tbaa !69
  store i64 %1, ptr %5, align 8, !tbaa !54
  %12 = load i64, ptr %5, align 8, !tbaa !54
  %13 = call noundef i64 @_ZNSt14numeric_limitsImE3maxEv() #3
  %14 = udiv i64 %13, 1
  %15 = icmp ule i64 %12, %14
  store i1 false, ptr %7, align 1
  store i1 false, ptr %8, align 1
  call void @llvm.lifetime.start.p0(i64 1, ptr %11) #3
  br i1 %15, label %16, label %17

16:                                               ; preds = %2
  br label %23

17:                                               ; preds = %2
  call void @llvm.lifetime.start.p0(i64 56, ptr %6) #3
  store i1 true, ptr %7, align 1
  call void @_ZN6google8protobuf8internal10LogMessageC1ENS0_8LogLevelEPKci(ptr noundef nonnull align 8 dereferenceable(56) %6, i32 noundef 3, ptr noundef @.str.7, i32 noundef 332)
  store i1 true, ptr %8, align 1
  %18 = invoke noundef nonnull align 8 dereferenceable(56) ptr @_ZN6google8protobuf8internal10LogMessagelsEPKc(ptr noundef nonnull align 8 dereferenceable(56) %6, ptr noundef @.str.8)
          to label %19 unwind label %36

19:                                               ; preds = %17
  %20 = invoke noundef nonnull align 8 dereferenceable(56) ptr @_ZN6google8protobuf8internal10LogMessagelsEPKc(ptr noundef nonnull align 8 dereferenceable(56) %18, ptr noundef @.str.9)
          to label %21 unwind label %36

21:                                               ; preds = %19
  invoke void @_ZN6google8protobuf8internal11LogFinisheraSERNS1_10LogMessageE(ptr noundef nonnull align 1 dereferenceable(1) %11, ptr noundef nonnull align 8 dereferenceable(56) %20)
          to label %22 unwind label %40

22:                                               ; preds = %21
  br label %23

23:                                               ; preds = %22, %16
  call void @llvm.lifetime.end.p0(i64 1, ptr %11) #3
  %24 = load i1, ptr %8, align 1
  br i1 %24, label %25, label %26

25:                                               ; preds = %23
  call void @_ZN6google8protobuf8internal10LogMessageD1Ev(ptr noundef nonnull align 8 dereferenceable(56) %6) #3
  br label %26

26:                                               ; preds = %25, %23
  %27 = load i1, ptr %7, align 1
  br i1 %27, label %28, label %29

28:                                               ; preds = %26
  call void @llvm.lifetime.end.p0(i64 56, ptr %6) #3
  br label %29

29:                                               ; preds = %28, %26
  %30 = load ptr, ptr %4, align 8, !tbaa !69
  %31 = icmp eq ptr %30, null
  br i1 %31, label %32, label %51

32:                                               ; preds = %29
  %33 = load i64, ptr %5, align 8, !tbaa !54
  %34 = mul i64 %33, 1
  %35 = call noalias noundef nonnull ptr @_Znam(i64 noundef %34) #22
  store ptr %35, ptr %3, align 8
  br label %55

36:                                               ; preds = %19, %17
  %37 = landingpad { ptr, i32 }
          cleanup
  %38 = extractvalue { ptr, i32 } %37, 0
  store ptr %38, ptr %9, align 8
  %39 = extractvalue { ptr, i32 } %37, 1
  store i32 %39, ptr %10, align 4
  br label %44

40:                                               ; preds = %21
  %41 = landingpad { ptr, i32 }
          cleanup
  %42 = extractvalue { ptr, i32 } %41, 0
  store ptr %42, ptr %9, align 8
  %43 = extractvalue { ptr, i32 } %41, 1
  store i32 %43, ptr %10, align 4
  call void @llvm.lifetime.end.p0(i64 1, ptr %11) #3
  br label %44

44:                                               ; preds = %40, %36
  %45 = load i1, ptr %8, align 1
  br i1 %45, label %46, label %47

46:                                               ; preds = %44
  call void @_ZN6google8protobuf8internal10LogMessageD1Ev(ptr noundef nonnull align 8 dereferenceable(56) %6) #3
  br label %47

47:                                               ; preds = %46, %44
  %48 = load i1, ptr %7, align 1
  br i1 %48, label %49, label %50

49:                                               ; preds = %47
  call void @llvm.lifetime.end.p0(i64 56, ptr %6) #3
  br label %50

50:                                               ; preds = %49, %47
  br label %57

51:                                               ; preds = %29
  %52 = load ptr, ptr %4, align 8, !tbaa !69
  %53 = load i64, ptr %5, align 8, !tbaa !54
  %54 = call noundef ptr @_ZN6google8protobuf5Arena22CreateInternalRawArrayIcEEPT_m(ptr noundef nonnull align 8 dereferenceable(32) %52, i64 noundef %53)
  store ptr %54, ptr %3, align 8
  br label %55

55:                                               ; preds = %51, %32
  %56 = load ptr, ptr %3, align 8
  ret ptr %56

57:                                               ; preds = %50
  %58 = load ptr, ptr %9, align 8
  %59 = load i32, ptr %10, align 4
  %60 = insertvalue { ptr, i32 } poison, ptr %58, 0
  %61 = insertvalue { ptr, i32 } %60, i32 %59, 1
  resume { ptr, i32 } %61
}

; Function Attrs: mustprogress uwtable
define hidden noundef ptr @_ZNK6google8protobuf14DynamicMessage3NewEPNS0_5ArenaE(ptr noundef nonnull align 8 dereferenceable(28) %0, ptr noundef %1) unnamed_addr #4 align 2 {
  %3 = alloca ptr, align 8
  %4 = alloca ptr, align 8
  %5 = alloca ptr, align 8
  %6 = alloca ptr, align 8
  %7 = alloca ptr, align 8
  store ptr %0, ptr %4, align 8, !tbaa !3
  store ptr %1, ptr %5, align 8, !tbaa !69
  %8 = load ptr, ptr %4, align 8
  %9 = load ptr, ptr %5, align 8, !tbaa !69
  %10 = icmp ne ptr %9, null
  br i1 %10, label %11, label %29

11:                                               ; preds = %2
  call void @llvm.lifetime.start.p0(i64 8, ptr %6) #3
  %12 = load ptr, ptr %5, align 8, !tbaa !69
  %13 = getelementptr inbounds nuw %"class.google::protobuf::DynamicMessage", ptr %8, i32 0, i32 1
  %14 = load ptr, ptr %13, align 8, !tbaa !12
  %15 = getelementptr inbounds nuw %"struct.google::protobuf::DynamicMessageFactory::TypeInfo", ptr %14, i32 0, i32 0
  %16 = load i32, ptr %15, align 8, !tbaa !184
  %17 = sext i32 %16 to i64
  %18 = call noundef ptr @_ZN6google8protobuf5Arena11CreateArrayIcEEPT_PS1_m(ptr noundef %12, i64 noundef %17)
  store ptr %18, ptr %6, align 8, !tbaa !53
  %19 = load ptr, ptr %6, align 8, !tbaa !53
  %20 = getelementptr inbounds nuw %"class.google::protobuf::DynamicMessage", ptr %8, i32 0, i32 1
  %21 = load ptr, ptr %20, align 8, !tbaa !12
  %22 = getelementptr inbounds nuw %"struct.google::protobuf::DynamicMessageFactory::TypeInfo", ptr %21, i32 0, i32 0
  %23 = load i32, ptr %22, align 8, !tbaa !184
  %24 = sext i32 %23 to i64
  call void @llvm.memset.p0.i64(ptr align 1 %19, i8 0, i64 %24, i1 false)
  %25 = load ptr, ptr %6, align 8, !tbaa !53
  %26 = getelementptr inbounds nuw %"class.google::protobuf::DynamicMessage", ptr %8, i32 0, i32 1
  %27 = load ptr, ptr %26, align 8, !tbaa !12
  %28 = load ptr, ptr %5, align 8, !tbaa !69
  call void @_ZN6google8protobuf14DynamicMessageC1EPKNS0_21DynamicMessageFactory8TypeInfoEPNS0_5ArenaE(ptr noundef nonnull align 8 dereferenceable(28) %25, ptr noundef %27, ptr noundef %28)
  store ptr %25, ptr %3, align 8
  call void @llvm.lifetime.end.p0(i64 8, ptr %6) #3
  br label %45

29:                                               ; preds = %2
  call void @llvm.lifetime.start.p0(i64 8, ptr %7) #3
  %30 = getelementptr inbounds nuw %"class.google::protobuf::DynamicMessage", ptr %8, i32 0, i32 1
  %31 = load ptr, ptr %30, align 8, !tbaa !12
  %32 = getelementptr inbounds nuw %"struct.google::protobuf::DynamicMessageFactory::TypeInfo", ptr %31, i32 0, i32 0
  %33 = load i32, ptr %32, align 8, !tbaa !184
  %34 = sext i32 %33 to i64
  %35 = call noalias noundef nonnull ptr @_Znwm(i64 noundef %34) #22
  store ptr %35, ptr %7, align 8, !tbaa !53
  %36 = load ptr, ptr %7, align 8, !tbaa !53
  %37 = getelementptr inbounds nuw %"class.google::protobuf::DynamicMessage", ptr %8, i32 0, i32 1
  %38 = load ptr, ptr %37, align 8, !tbaa !12
  %39 = getelementptr inbounds nuw %"struct.google::protobuf::DynamicMessageFactory::TypeInfo", ptr %38, i32 0, i32 0
  %40 = load i32, ptr %39, align 8, !tbaa !184
  %41 = sext i32 %40 to i64
  call void @llvm.memset.p0.i64(ptr align 1 %36, i8 0, i64 %41, i1 false)
  %42 = load ptr, ptr %7, align 8, !tbaa !53
  %43 = getelementptr inbounds nuw %"class.google::protobuf::DynamicMessage", ptr %8, i32 0, i32 1
  %44 = load ptr, ptr %43, align 8, !tbaa !12
  call void @_ZN6google8protobuf14DynamicMessageC1EPKNS0_21DynamicMessageFactory8TypeInfoE(ptr noundef nonnull align 8 dereferenceable(28) %42, ptr noundef %44)
  store ptr %42, ptr %3, align 8
  call void @llvm.lifetime.end.p0(i64 8, ptr %7) #3
  br label %45

45:                                               ; preds = %29, %11
  %46 = load ptr, ptr %3, align 8
  ret ptr %46
}