; Function Attrs: mustprogress uwtable
define hidden noundef ptr @_ZNK6google8protobuf14DynamicMessage3NewEPNS0_5ArenaE(ptr noundef nonnull readonly align 8 captures(none) dereferenceable(28) %0, ptr noundef %1) unnamed_addr #3 align 2 personality ptr @__gxx_personality_v0 {
  %.not = icmp eq ptr %1, null
  %3 = getelementptr inbounds nuw i8, ptr %0, i64 16
  %4 = load ptr, ptr %3, align 8, !tbaa !10
  %5 = load i32, ptr %4, align 8, !tbaa !188
  %6 = sext i32 %5 to i64
  br i1 %.not, label %20, label %_ZN6google8protobuf5Arena11CreateArrayIcEEPT_PS1_m.exit

_ZN6google8protobuf5Arena11CreateArrayIcEEPT_PS1_m.exit: ; preds = %2
  %7 = add nsw i64 %6, 7
  %8 = and i64 %7, -8
  %9 = tail call noundef ptr @_ZN6google8protobuf5Arena23AllocateAlignedWithHookEmPKSt9type_info(ptr noundef nonnull align 8 dereferenceable(32) %1, i64 noundef %8, ptr noundef nonnull @_ZTIc)
  %10 = load ptr, ptr %3, align 8, !tbaa !10
  %11 = load i32, ptr %10, align 8, !tbaa !188
  %12 = sext i32 %11 to i64
  tail call void @llvm.memset.p0.i64(ptr align 1 %9, i8 0, i64 %12, i1 false)
  %13 = load ptr, ptr %3, align 8, !tbaa !10
  %14 = getelementptr inbounds nuw i8, ptr %9, i64 8
  %15 = ptrtoint ptr %1 to i64
  store i64 %15, ptr %14, align 8, !tbaa !3
  store ptr getelementptr inbounds nuw inrange(-16, 152) (i8, ptr @_ZTVN6google8protobuf14DynamicMessageE, i64 16), ptr %9, align 8, !tbaa !8
  %16 = getelementptr inbounds nuw i8, ptr %9, i64 16
  store ptr %13, ptr %16, align 8, !tbaa !10
  %17 = getelementptr inbounds nuw i8, ptr %9, i64 24
  store i32 0, ptr %17, align 4, !tbaa !19
  invoke void @_ZN6google8protobuf14DynamicMessage10SharedCtorEb(ptr noundef nonnull align 8 dereferenceable(28) %9, i1 noundef zeroext true)
          to label %_ZN6google8protobuf14DynamicMessageC2EPKNS0_21DynamicMessageFactory8TypeInfoEPNS0_5ArenaE.exit unwind label %18

common.resume:                                    ; preds = %28, %18
  %.sink = phi ptr [ %21, %28 ], [ %9, %18 ]
  %common.resume.op = phi { ptr, i32 } [ %29, %28 ], [ %19, %18 ]
  tail call void @_ZN6google8protobuf11MessageLiteD2Ev(ptr noundef nonnull align 8 dereferenceable(28) %.sink) #19
  resume { ptr, i32 } %common.resume.op

18:                                               ; preds = %_ZN6google8protobuf5Arena11CreateArrayIcEEPT_PS1_m.exit
  %19 = landingpad { ptr, i32 }
          cleanup
  br label %common.resume

20:                                               ; preds = %2
  %21 = tail call noalias noundef nonnull ptr @_Znwm(i64 noundef %6) #23
  %22 = load ptr, ptr %3, align 8, !tbaa !10
  %23 = load i32, ptr %22, align 8, !tbaa !188
  %24 = sext i32 %23 to i64
  tail call void @llvm.memset.p0.i64(ptr nonnull align 1 %21, i8 0, i64 %24, i1 false)
  %25 = getelementptr inbounds nuw i8, ptr %21, i64 8
  store i64 0, ptr %25, align 8, !tbaa !3
  store ptr getelementptr inbounds nuw inrange(-16, 152) (i8, ptr @_ZTVN6google8protobuf14DynamicMessageE, i64 16), ptr %21, align 8, !tbaa !8
  %26 = getelementptr inbounds nuw i8, ptr %21, i64 16
  store ptr %22, ptr %26, align 8, !tbaa !10
  %27 = getelementptr inbounds nuw i8, ptr %21, i64 24
  store i32 0, ptr %27, align 4, !tbaa !19
  invoke void @_ZN6google8protobuf14DynamicMessage10SharedCtorEb(ptr noundef nonnull align 8 dereferenceable(28) %21, i1 noundef zeroext true)
          to label %_ZN6google8protobuf14DynamicMessageC2EPKNS0_21DynamicMessageFactory8TypeInfoEPNS0_5ArenaE.exit unwind label %28

28:                                               ; preds = %20
  %29 = landingpad { ptr, i32 }
          cleanup
  br label %common.resume

_ZN6google8protobuf14DynamicMessageC2EPKNS0_21DynamicMessageFactory8TypeInfoEPNS0_5ArenaE.exit: ; preds = %20, %_ZN6google8protobuf5Arena11CreateArrayIcEEPT_PS1_m.exit
  %.0 = phi ptr [ %9, %_ZN6google8protobuf5Arena11CreateArrayIcEEPT_PS1_m.exit ], [ %21, %20 ]
  ret ptr %.0
}